; Function Attrs: mustprogress uwtable
define hidden void @_ZN10sls_engine7mk_flipEP4sortRK3mpzjRS2_(ptr noundef nonnull align 8 dereferenceable(1496) %0, ptr noundef %1, ptr noundef nonnull align 8 dereferenceable(16) %2, i32 noundef %3, ptr noundef nonnull align 8 dereferenceable(16) %4) local_unnamed_addr #3 align 2 {
  %6 = alloca %class.mpz, align 8
  %7 = getelementptr inbounds nuw i8, ptr %0, i64 64
  %8 = getelementptr inbounds nuw i8, ptr %0, i64 696
  %9 = getelementptr inbounds nuw i8, ptr %0, i64 700
  %10 = load i8, ptr %9, align 4
  %11 = and i8 %10, 1
  %12 = icmp eq i8 %11, 0
  br i1 %12, label %13, label %18

13:                                               ; preds = %5
  %14 = load i32, ptr %8, align 8, !tbaa !32
  store i32 %14, ptr %4, align 8, !tbaa !32
  %15 = getelementptr inbounds nuw i8, ptr %4, i64 4
  %16 = load i8, ptr %15, align 4
  %17 = and i8 %16, -2
  store i8 %17, ptr %15, align 4
  br label %_ZN11mpz_managerILb0EE3setER3mpzRKS1_.exit

18:                                               ; preds = %5
  tail call void @_ZN11mpz_managerILb0EE7big_setER3mpzRKS1_(ptr noundef nonnull align 8 dereferenceable(600) %7, ptr noundef nonnull align 8 dereferenceable(16) %4, ptr noundef nonnull align 8 dereferenceable(16) %8)
  br label %_ZN11mpz_managerILb0EE3setER3mpzRKS1_.exit

_ZN11mpz_managerILb0EE3setER3mpzRKS1_.exit:       ; preds = %13, %18
  %19 = getelementptr inbounds nuw i8, ptr %0, i64 744
  %20 = tail call noundef zeroext i1 @_ZNK14bv_recognizers10is_bv_sortEPK4sort(ptr noundef nonnull align 4 dereferenceable(4) %19, ptr noundef %1)
  br i1 %20, label %21, label %33

21:                                               ; preds = %_ZN11mpz_managerILb0EE3setER3mpzRKS1_.exit
  call void @llvm.lifetime.start.p0(i64 16, ptr nonnull %6) #25
  store i32 0, ptr %6, align 8, !tbaa !32
  %22 = getelementptr inbounds nuw i8, ptr %6, i64 4
  store i8 0, ptr %22, align 4
  %23 = getelementptr inbounds nuw i8, ptr %6, i64 8
  store ptr null, ptr %23, align 8, !tbaa !38
  %24 = getelementptr inbounds nuw i8, ptr %0, i64 664
  %25 = tail call noundef nonnull align 8 dereferenceable(16) ptr @_ZN6powersclEj(ptr noundef nonnull align 8 dereferenceable(32) %24, i32 noundef %3)
  %26 = getelementptr inbounds nuw i8, ptr %25, i64 4
  %27 = load i8, ptr %26, align 4
  %28 = and i8 %27, 1
  %29 = icmp eq i8 %28, 0
  br i1 %29, label %30, label %32

30:                                               ; preds = %21
  %31 = load i32, ptr %25, align 8, !tbaa !32
  store i32 %31, ptr %6, align 8, !tbaa !32
  store i8 0, ptr %22, align 4
  br label %_ZN11mpz_managerILb0EE3setER3mpzRKS1_.exit8

32:                                               ; preds = %21
  call void @_ZN11mpz_managerILb0EE7big_setER3mpzRKS1_(ptr noundef nonnull align 8 dereferenceable(600) %7, ptr noundef nonnull align 8 dereferenceable(16) %6, ptr noundef nonnull align 8 dereferenceable(16) %25)
  br label %_ZN11mpz_managerILb0EE3setER3mpzRKS1_.exit8

_ZN11mpz_managerILb0EE3setER3mpzRKS1_.exit8:      ; preds = %30, %32
  call void @_ZN11mpz_managerILb0EE11bitwise_xorERK3mpzS3_RS1_(ptr noundef nonnull align 8 dereferenceable(600) %7, ptr noundef nonnull align 8 dereferenceable(16) %2, ptr noundef nonnull align 8 dereferenceable(16) %6, ptr noundef nonnull align 8 dereferenceable(16) %4)
  call void @_ZN11mpz_managerILb0EE3delEPS0_R3mpz(ptr noundef nonnull align 8 dereferenceable(600) %7, ptr noundef nonnull align 8 dereferenceable(16) %6)
  call void @llvm.lifetime.end.p0(i64 16, ptr nonnull %6) #25
  br label %_ZN11mpz_managerILb0EE3setER3mpzRKS1_.exit9

33:                                               ; preds = %_ZN11mpz_managerILb0EE3setER3mpzRKS1_.exit
  %34 = load ptr, ptr %0, align 8, !tbaa !220
  %35 = getelementptr inbounds nuw i8, ptr %34, i64 840
  %36 = load ptr, ptr %35, align 8, !tbaa !247
  %37 = icmp eq ptr %1, %36
  br i1 %37, label %38, label %53

38:                                               ; preds = %33
  %39 = load i32, ptr %2, align 8, !tbaa !32
  %40 = icmp eq i32 %39, 0
  %41 = getelementptr inbounds nuw i8, ptr %0, i64 712
  %42 = select i1 %40, ptr %41, ptr %8
  %43 = getelementptr inbounds nuw i8, ptr %42, i64 4
  %44 = load i8, ptr %43, align 4
  %45 = and i8 %44, 1
  %46 = icmp eq i8 %45, 0
  br i1 %46, label %47, label %52

47:                                               ; preds = %38
  %48 = load i32, ptr %42, align 8, !tbaa !32
  store i32 %48, ptr %4, align 8, !tbaa !32
  %49 = getelementptr inbounds nuw i8, ptr %4, i64 4
  %50 = load i8, ptr %49, align 4
  %51 = and i8 %50, -2
  store i8 %51, ptr %49, align 4
  br label %_ZN11mpz_managerILb0EE3setER3mpzRKS1_.exit9

52:                                               ; preds = %38
  tail call void @_ZN11mpz_managerILb0EE7big_setER3mpzRKS1_(ptr noundef nonnull align 8 dereferenceable(600) %7, ptr noundef nonnull align 8 dereferenceable(16) %4, ptr noundef nonnull align 8 dereferenceable(16) %42)
  br label %_ZN11mpz_managerILb0EE3setER3mpzRKS1_.exit9

53:                                               ; preds = %33
  tail call void @_Z26notify_assertion_violationPKciS0_(ptr noundef nonnull @.str, i32 noundef 219, ptr noundef nonnull @.str.1)
  tail call void @_Z18invoke_exit_actionj(i32 noundef 107)
  br label %_ZN11mpz_managerILb0EE3setER3mpzRKS1_.exit9

_ZN11mpz_managerILb0EE3setER3mpzRKS1_.exit9:      ; preds = %52, %47, %53, %_ZN11mpz_managerILb0EE3setER3mpzRKS1_.exit8
  ret void
}